target datalayout = "e-m:e-p270:32:32-p271:32:32-p272:64:64-i64:64-i128:128-f80:128-n8:16:32:64-S128"
target triple = "x86_64-pc-linux-gnu"

%"class.icu_77::UObject" = type { ptr }
%"class.icu_77::StringTrieBuilder::Node" = type { %"class.icu_77::UObject", i32, i32 }
%"class.icu_77::StringTrieBuilder::ValueNode" = type { %"class.icu_77::StringTrieBuilder::Node", i8, i32 }
%"class.icu_77::StringTrieBuilder::LinearMatchNode" = type { %"class.icu_77::StringTrieBuilder::ValueNode", i32, ptr }

; Function Attrs: mustprogress uwtable
define noundef i32 @_ZN6icu_7717StringTrieBuilder15LinearMatchNode19markRightEdgesFirstEi(ptr noundef nonnull align 8 dereferenceable(40) %0, i32 noundef %1) unnamed_addr #2 align 2 {
  %3 = alloca ptr, align 8
  %4 = alloca i32, align 4
  store ptr %0, ptr %3, align 8, !tbaa !78
  store i32 %1, ptr %4, align 4, !tbaa !16
  %5 = load ptr, ptr %3, align 8
  %6 = getelementptr inbounds nuw %"class.icu_77::StringTrieBuilder::Node", ptr %5, i32 0, i32 2
  %7 = load i32, ptr %6, align 4, !tbaa !77
  %8 = icmp eq i32 %7, 0
  br i1 %8, label %9, label %18

9:                                                ; preds = %2
  %10 = getelementptr inbounds nuw %"class.icu_77::StringTrieBuilder::LinearMatchNode", ptr %5, i32 0, i32 2
  %11 = load ptr, ptr %10, align 8, !tbaa !82
  %12 = load i32, ptr %4, align 4, !tbaa !16
  %13 = load ptr, ptr %11, align 8, !tbaa !8
  %14 = getelementptr inbounds ptr, ptr %13, i64 4
  %15 = load ptr, ptr %14, align 8
  %16 = call noundef i32 %15(ptr noundef nonnull align 8 dereferenceable(16) %11, i32 noundef %12)
  store i32 %16, ptr %4, align 4, !tbaa !16
  %17 = getelementptr inbounds nuw %"class.icu_77::StringTrieBuilder::Node", ptr %5, i32 0, i32 2
  store i32 %16, ptr %17, align 4, !tbaa !77
  br label %18

18:                                               ; preds = %9, %2
  %19 = load i32, ptr %4, align 4, !tbaa !16
  ret i32 %19
}